target datalayout = "e-m:e-p270:32:32-p271:32:32-p272:64:64-i64:64-i128:128-f80:128-n8:16:32:64-S128"
target triple = "x86_64-pc-linux-gnu"

%struct.fdt_header = type { i32, i32, i32, i32, i32, i32, i32, i32, i32, i32 }

; Function Attrs: inlinehint nounwind uwtable
define internal i32 @cpu_to_fdt32(i32 noundef %0) #3 {
  %2 = alloca i32, align 4
  store i32 %0, ptr %2, align 4
  %3 = getelementptr inbounds i8, ptr %2, i64 0
  %4 = load i8, ptr %3, align 4
  %5 = zext i8 %4 to i64
  %6 = shl i64 %5, 24
  %7 = getelementptr inbounds i8, ptr %2, i64 1
  %8 = load i8, ptr %7, align 1
  %9 = zext i8 %8 to i64
  %10 = shl i64 %9, 16
  %11 = or i64 %6, %10
  %12 = getelementptr inbounds i8, ptr %2, i64 2
  %13 = load i8, ptr %12, align 2
  %14 = zext i8 %13 to i64
  %15 = shl i64 %14, 8
  %16 = or i64 %11, %15
  %17 = getelementptr inbounds i8, ptr %2, i64 3
  %18 = load i8, ptr %17, align 1
  %19 = zext i8 %18 to i64
  %20 = or i64 %16, %19
  %21 = trunc i64 %20 to i32
  ret i32 %21
}

; Function Attrs: inlinehint nounwind uwtable
define internal void @fdt_set_off_dt_strings(ptr noundef %0, i32 noundef %1) #3 {
  %3 = alloca ptr, align 8
  %4 = alloca i32, align 4
  %5 = alloca ptr, align 8
  store ptr %0, ptr %3, align 8
  store i32 %1, ptr %4, align 4
  call void @llvm.lifetime.start.p0(i64 8, ptr %5) #7
  %6 = load ptr, ptr %3, align 8
  store ptr %6, ptr %5, align 8
  %7 = load i32, ptr %4, align 4
  %8 = call i32 @cpu_to_fdt32(i32 noundef %7)
  %9 = load ptr, ptr %5, align 8
  %10 = getelementptr inbounds nuw %struct.fdt_header, ptr %9, i32 0, i32 3
  store i32 %8, ptr %10, align 4
  call void @llvm.lifetime.end.p0(i64 8, ptr %5) #7
  ret void
}

; Function Attrs: inlinehint nounwind uwtable
define internal void @fdt_set_off_dt_struct(ptr noundef %0, i32 noundef %1) #3 {
  %3 = alloca ptr, align 8
  %4 = alloca i32, align 4
  %5 = alloca ptr, align 8
  store ptr %0, ptr %3, align 8
  store i32 %1, ptr %4, align 4
  call void @llvm.lifetime.start.p0(i64 8, ptr %5) #7
  %6 = load ptr, ptr %3, align 8
  store ptr %6, ptr %5, align 8
  %7 = load i32, ptr %4, align 4
  %8 = call i32 @cpu_to_fdt32(i32 noundef %7)
  %9 = load ptr, ptr %5, align 8
  %10 = getelementptr inbounds nuw %struct.fdt_header, ptr %9, i32 0, i32 2
  store i32 %8, ptr %10, align 4
  call void @llvm.lifetime.end.p0(i64 8, ptr %5) #7
  ret void
}

; Function Attrs: inlinehint nounwind uwtable
define internal i32 @fdt32_ld(ptr noundef %0) #3 {
  %2 = alloca ptr, align 8
  %3 = alloca ptr, align 8
  store ptr %0, ptr %2, align 8
  call void @llvm.lifetime.start.p0(i64 8, ptr %3) #7
  %4 = load ptr, ptr %2, align 8
  store ptr %4, ptr %3, align 8
  %5 = load ptr, ptr %3, align 8
  %6 = getelementptr inbounds i8, ptr %5, i64 0
  %7 = load i8, ptr %6, align 1
  %8 = zext i8 %7 to i32
  %9 = shl i32 %8, 24
  %10 = load ptr, ptr %3, align 8
  %11 = getelementptr inbounds i8, ptr %10, i64 1
  %12 = load i8, ptr %11, align 1
  %13 = zext i8 %12 to i32
  %14 = shl i32 %13, 16
  %15 = or i32 %9, %14
  %16 = load ptr, ptr %3, align 8
  %17 = getelementptr inbounds i8, ptr %16, i64 2
  %18 = load i8, ptr %17, align 1
  %19 = zext i8 %18 to i32
  %20 = shl i32 %19, 8
  %21 = or i32 %15, %20
  %22 = load ptr, ptr %3, align 8
  %23 = getelementptr inbounds i8, ptr %22, i64 3
  %24 = load i8, ptr %23, align 1
  %25 = zext i8 %24 to i32
  %26 = or i32 %21, %25
  call void @llvm.lifetime.end.p0(i64 8, ptr %3) #7
  ret i32 %26
}

; Function Attrs: inlinehint nounwind uwtable
define internal void @fdt_set_off_mem_rsvmap(ptr noundef %0, i32 noundef %1) #3 {
  %3 = alloca ptr, align 8
  %4 = alloca i32, align 4
  %5 = alloca ptr, align 8
  store ptr %0, ptr %3, align 8
  store i32 %1, ptr %4, align 4
  call void @llvm.lifetime.start.p0(i64 8, ptr %5) #7
  %6 = load ptr, ptr %3, align 8
  store ptr %6, ptr %5, align 8
  %7 = load i32, ptr %4, align 4
  %8 = call i32 @cpu_to_fdt32(i32 noundef %7)
  %9 = load ptr, ptr %5, align 8
  %10 = getelementptr inbounds nuw %struct.fdt_header, ptr %9, i32 0, i32 4
  store i32 %8, ptr %10, align 4
  call void @llvm.lifetime.end.p0(i64 8, ptr %5) #7
  ret void
}

; Function Attrs: inlinehint nounwind uwtable
define internal void @fdt_set_totalsize(ptr noundef %0, i32 noundef %1) #3 {
  %3 = alloca ptr, align 8
  %4 = alloca i32, align 4
  %5 = alloca ptr, align 8
  store ptr %0, ptr %3, align 8
  store i32 %1, ptr %4, align 4
  call void @llvm.lifetime.start.p0(i64 8, ptr %5) #7
  %6 = load ptr, ptr %3, align 8
  store ptr %6, ptr %5, align 8
  %7 = load i32, ptr %4, align 4
  %8 = call i32 @cpu_to_fdt32(i32 noundef %7)
  %9 = load ptr, ptr %5, align 8
  %10 = getelementptr inbounds nuw %struct.fdt_header, ptr %9, i32 0, i32 1
  store i32 %8, ptr %10, align 4
  call void @llvm.lifetime.end.p0(i64 8, ptr %5) #7
  ret void
}

; Function Attrs: inlinehint nounwind uwtable
define internal void @fdt_set_last_comp_version(ptr noundef %0, i32 noundef %1) #3 {
  %3 = alloca ptr, align 8
  %4 = alloca i32, align 4
  %5 = alloca ptr, align 8
  store ptr %0, ptr %3, align 8
  store i32 %1, ptr %4, align 4
  call void @llvm.lifetime.start.p0(i64 8, ptr %5) #7
  %6 = load ptr, ptr %3, align 8
  store ptr %6, ptr %5, align 8
  %7 = load i32, ptr %4, align 4
  %8 = call i32 @cpu_to_fdt32(i32 noundef %7)
  %9 = load ptr, ptr %5, align 8
  %10 = getelementptr inbounds nuw %struct.fdt_header, ptr %9, i32 0, i32 6
  store i32 %8, ptr %10, align 4
  call void @llvm.lifetime.end.p0(i64 8, ptr %5) #7
  ret void
}

; Function Attrs: inlinehint nounwind uwtable
define internal void @fdt_set_version(ptr noundef %0, i32 noundef %1) #3 {
  %3 = alloca ptr, align 8
  %4 = alloca i32, align 4
  %5 = alloca ptr, align 8
  store ptr %0, ptr %3, align 8
  store i32 %1, ptr %4, align 4
  call void @llvm.lifetime.start.p0(i64 8, ptr %5) #7
  %6 = load ptr, ptr %3, align 8
  store ptr %6, ptr %5, align 8
  %7 = load i32, ptr %4, align 4
  %8 = call i32 @cpu_to_fdt32(i32 noundef %7)
  %9 = load ptr, ptr %5, align 8
  %10 = getelementptr inbounds nuw %struct.fdt_header, ptr %9, i32 0, i32 5
  store i32 %8, ptr %10, align 4
  call void @llvm.lifetime.end.p0(i64 8, ptr %5) #7
  ret void
}

; Function Attrs: inlinehint nounwind uwtable
define internal void @fdt_set_magic(ptr noundef %0, i32 noundef %1) #3 {
  %3 = alloca ptr, align 8
  %4 = alloca i32, align 4
  %5 = alloca ptr, align 8
  store ptr %0, ptr %3, align 8
  store i32 %1, ptr %4, align 4
  call void @llvm.lifetime.start.p0(i64 8, ptr %5) #7
  %6 = load ptr, ptr %3, align 8
  store ptr %6, ptr %5, align 8
  %7 = load i32, ptr %4, align 4
  %8 = call i32 @cpu_to_fdt32(i32 noundef %7)
  %9 = load ptr, ptr %5, align 8
  %10 = getelementptr inbounds nuw %struct.fdt_header, ptr %9, i32 0, i32 0
  store i32 %8, ptr %10, align 4
  call void @llvm.lifetime.end.p0(i64 8, ptr %5) #7
  ret void
}

; Function Attrs: nounwind uwtable
define dso_local i32 @fdt_create_with_flags(ptr noundef %0, i32 noundef %1, i32 noundef %2) #0 {
  %4 = alloca i32, align 4
  %5 = alloca ptr, align 8
  %6 = alloca i32, align 4
  %7 = alloca i32, align 4
  %8 = alloca i32, align 4
  %9 = alloca ptr, align 8
  %10 = alloca i32, align 4
  store ptr %0, ptr %5, align 8
  store i32 %1, ptr %6, align 4
  store i32 %2, ptr %7, align 4
  call void @llvm.lifetime.start.p0(i64 4, ptr %8) #7
  store i32 48, ptr %8, align 4
  call void @llvm.lifetime.start.p0(i64 8, ptr %9) #7
  %11 = load ptr, ptr %5, align 8
  store ptr %11, ptr %9, align 8
  %12 = load i32, ptr %6, align 4
  %13 = icmp slt i32 %12, 48
  br i1 %13, label %14, label %15

14:                                               ; preds = %3
  store i32 -3, ptr %4, align 4
  store i32 1, ptr %10, align 4
  br label %36

15:                                               ; preds = %3
  %16 = load i32, ptr %7, align 4
  %17 = and i32 %16, -2
  %18 = icmp ne i32 %17, 0
  br i1 %18, label %19, label %20

19:                                               ; preds = %15
  store i32 -18, ptr %4, align 4
  store i32 1, ptr %10, align 4
  br label %36

20:                                               ; preds = %15
  %21 = load ptr, ptr %5, align 8
  %22 = load i32, ptr %6, align 4
  %23 = sext i32 %22 to i64
  call void @llvm.memset.p0.i64(ptr align 1 %21, i8 0, i64 %23, i1 false)
  %24 = load ptr, ptr %9, align 8
  call void @fdt_set_magic(ptr noundef %24, i32 noundef 804389138)
  %25 = load ptr, ptr %9, align 8
  call void @fdt_set_version(ptr noundef %25, i32 noundef 17)
  %26 = load ptr, ptr %9, align 8
  %27 = load i32, ptr %7, align 4
  call void @fdt_set_last_comp_version(ptr noundef %26, i32 noundef %27)
  %28 = load ptr, ptr %9, align 8
  %29 = load i32, ptr %6, align 4
  call void @fdt_set_totalsize(ptr noundef %28, i32 noundef %29)
  %30 = load ptr, ptr %9, align 8
  call void @fdt_set_off_mem_rsvmap(ptr noundef %30, i32 noundef 48)
  %31 = load ptr, ptr %9, align 8
  %32 = load ptr, ptr %9, align 8
  %33 = getelementptr inbounds nuw %struct.fdt_header, ptr %32, i32 0, i32 4
  %34 = call i32 @fdt32_ld(ptr noundef %33)
  call void @fdt_set_off_dt_struct(ptr noundef %31, i32 noundef %34)
  %35 = load ptr, ptr %9, align 8
  call void @fdt_set_off_dt_strings(ptr noundef %35, i32 noundef 0)
  store i32 0, ptr %4, align 4
  store i32 1, ptr %10, align 4
  br label %36

36:                                               ; preds = %20, %19, %14
  call void @llvm.lifetime.end.p0(i64 8, ptr %9) #7
  call void @llvm.lifetime.end.p0(i64 4, ptr %8) #7
  %37 = load i32, ptr %4, align 4
  ret i32 %37
}