; Function Attrs: mustprogress nofree norecurse nosync nounwind willreturn memory(argmem: write) uwtable
define dso_local range(i32 -18, 1) i32 @fdt_create_with_flags(ptr noundef writeonly captures(none) %0, i32 noundef %1, i32 noundef %2) local_unnamed_addr #0 {
  %4 = icmp slt i32 %1, 48
  br i1 %4, label %14, label %5

5:                                                ; preds = %3
  %.not = icmp ult i32 %2, 2
  br i1 %.not, label %6, label %14

6:                                                ; preds = %5
  %7 = zext nneg i32 %1 to i64
  tail call void @llvm.memset.p0.i64(ptr align 1 %0, i8 0, i64 %7, i1 false)
  store i32 302117423, ptr %0, align 4
  %8 = getelementptr inbounds nuw i8, ptr %0, i64 20
  store i32 285212672, ptr %8, align 4
  %rev.i.i = shl nuw nsw i32 %2, 24
  %9 = getelementptr inbounds nuw i8, ptr %0, i64 24
  store i32 %rev.i.i, ptr %9, align 4
  %rev.i.i16 = tail call noundef i32 @llvm.bswap.i32(i32 %1)
  %10 = getelementptr inbounds nuw i8, ptr %0, i64 4
  store i32 %rev.i.i16, ptr %10, align 4
  %11 = getelementptr inbounds nuw i8, ptr %0, i64 16
  store i32 805306368, ptr %11, align 4
  %12 = getelementptr inbounds nuw i8, ptr %0, i64 8
  store i32 805306368, ptr %12, align 4
  %13 = getelementptr inbounds nuw i8, ptr %0, i64 12
  store i32 0, ptr %13, align 4
  br label %14

14:                                               ; preds = %5, %3, %6
  %.0 = phi i32 [ 0, %6 ], [ -3, %3 ], [ -18, %5 ]
  ret i32 %.0
}